target datalayout = "e-m:e-p270:32:32-p271:32:32-p272:64:64-i64:64-i128:128-f80:128-n8:16:32:64-S128"
target triple = "x86_64-pc-linux-gnu"

%struct._pres_user_t = type { i32, ptr }

; Function Attrs: null_pointer_is_valid sspstrong uwtable
define internal ptr @pres_copy_cb(ptr noundef %0, ptr noundef %1, i64 noundef %2) #0 {
  %4 = alloca ptr, align 8
  %5 = alloca ptr, align 8
  %6 = alloca i64, align 8
  %7 = alloca ptr, align 8
  %8 = alloca ptr, align 8
  store ptr %0, ptr %4, align 8
  store ptr %1, ptr %5, align 8
  store i64 %2, ptr %6, align 8
  call void @llvm.lifetime.start.p0(i64 8, ptr %7) #6
  %9 = load ptr, ptr %4, align 8
  store ptr %9, ptr %7, align 8
  call void @llvm.lifetime.start.p0(i64 8, ptr %8) #6
  %10 = load ptr, ptr %5, align 8
  store ptr %10, ptr %8, align 8
  %11 = load ptr, ptr %8, align 8
  %12 = getelementptr inbounds nuw %struct._pres_user_t, ptr %11, i32 0, i32 0
  %13 = load i32, ptr %12, align 8
  %14 = load ptr, ptr %7, align 8
  %15 = getelementptr inbounds nuw %struct._pres_user_t, ptr %14, i32 0, i32 0
  store i32 %13, ptr %15, align 8
  %16 = load ptr, ptr %8, align 8
  %17 = getelementptr inbounds nuw %struct._pres_user_t, ptr %16, i32 0, i32 1
  %18 = load ptr, ptr %17, align 8
  %19 = call noalias ptr @g_strdup(ptr noundef %18)
  %20 = load ptr, ptr %7, align 8
  %21 = getelementptr inbounds nuw %struct._pres_user_t, ptr %20, i32 0, i32 1
  store ptr %19, ptr %21, align 8
  %22 = load ptr, ptr %4, align 8
  call void @llvm.lifetime.end.p0(i64 8, ptr %8) #6
  call void @llvm.lifetime.end.p0(i64 8, ptr %7) #6
  ret ptr %22
}